; Function Attrs: mustprogress uwtable
define dso_local noundef zeroext i1 @_ZN14DependencyScan21RecomputeOutputsDirtyEP4EdgeP4NodePbPNSt7__cxx1112basic_stringIcSt11char_traitsIcESaIcEEE(ptr noundef nonnull align 8 dereferenceable(96) %0, ptr noundef nonnull %1, ptr noundef %2, ptr noundef writeonly captures(none) %3, ptr noundef readnone captures(none) %4) local_unnamed_addr #0 align 2 personality ptr @__gxx_personality_v0 {
  %6 = alloca %"class.std::__cxx11::basic_string", align 8
  call void @llvm.lifetime.start.p0(i64 32, ptr nonnull %6) #27
  call void @_ZNK4Edge15EvaluateCommandB5cxx11Eb(ptr dead_on_unwind nonnull writable sret(%"class.std::__cxx11::basic_string") align 8 %6, ptr noundef nonnull align 8 dereferenceable(168) %1, i1 noundef zeroext true)
  %7 = getelementptr inbounds nuw i8, ptr %1, i64 40
  %8 = load ptr, ptr %7, align 8, !tbaa !34
  %9 = getelementptr inbounds nuw i8, ptr %1, i64 48
  %10 = load ptr, ptr %9, align 8, !tbaa !34
  %.not17 = icmp eq ptr %8, %10
  br i1 %.not17, label %.critedge, label %.lr.ph

11:                                               ; preds = %16
  %12 = getelementptr inbounds nuw i8, ptr %.sroa.014.018, i64 8
  %13 = load ptr, ptr %9, align 8, !tbaa !34
  %.not = icmp eq ptr %12, %13
  br i1 %.not, label %.critedge, label %.lr.ph, !llvm.loop !100

.lr.ph:                                           ; preds = %5, %11
  %.sroa.014.018 = phi ptr [ %12, %11 ], [ %8, %5 ]
  %14 = load ptr, ptr %.sroa.014.018, align 8, !tbaa !35
  %15 = invoke noundef zeroext i1 @_ZN14DependencyScan20RecomputeOutputDirtyEPK4EdgePK4NodeRKNSt7__cxx1112basic_stringIcSt11char_traitsIcESaIcEEEPS3_(ptr noundef nonnull align 8 dereferenceable(96) %0, ptr noundef nonnull %1, ptr noundef %2, ptr noundef nonnull align 8 dereferenceable(32) %6, ptr noundef %14)
          to label %16 unwind label %18

16:                                               ; preds = %.lr.ph
  br i1 %15, label %17, label %11

17:                                               ; preds = %16
  store i8 1, ptr %3, align 1, !tbaa !127
  br label %.critedge

18:                                               ; preds = %.lr.ph
  %19 = landingpad { ptr, i32 }
          cleanup
  %20 = load ptr, ptr %6, align 8, !tbaa !78
  %21 = getelementptr inbounds nuw i8, ptr %6, i64 16
  %22 = icmp eq ptr %20, %21
  br i1 %22, label %_ZNKSt7__cxx1112basic_stringIcSt11char_traitsIcESaIcEE11_M_is_localEv.exit.thread.i.i, label %_ZNKSt7__cxx1112basic_stringIcSt11char_traitsIcESaIcEE11_M_is_localEv.exit.i.i

_ZNKSt7__cxx1112basic_stringIcSt11char_traitsIcESaIcEE11_M_is_localEv.exit.thread.i.i: ; preds = %18
  %23 = getelementptr inbounds nuw i8, ptr %6, i64 8
  %24 = load i64, ptr %23, align 8, !tbaa !97
  %25 = icmp ult i64 %24, 16
  call void @llvm.assume(i1 %25)
  br label %_ZNSt7__cxx1112basic_stringIcSt11char_traitsIcESaIcEED2Ev.exit

_ZNKSt7__cxx1112basic_stringIcSt11char_traitsIcESaIcEE11_M_is_localEv.exit.i.i: ; preds = %18
  %26 = load i64, ptr %21, align 8, !tbaa !101
  %27 = add i64 %26, 1
  call void @_ZdlPvm(ptr noundef %20, i64 noundef %27) #28
  br label %_ZNSt7__cxx1112basic_stringIcSt11char_traitsIcESaIcEED2Ev.exit

_ZNSt7__cxx1112basic_stringIcSt11char_traitsIcESaIcEED2Ev.exit: ; preds = %_ZNKSt7__cxx1112basic_stringIcSt11char_traitsIcESaIcEE11_M_is_localEv.exit.thread.i.i, %_ZNKSt7__cxx1112basic_stringIcSt11char_traitsIcESaIcEE11_M_is_localEv.exit.i.i
  call void @llvm.lifetime.end.p0(i64 32, ptr nonnull %6) #27
  resume { ptr, i32 } %19

.critedge:                                        ; preds = %11, %5, %17
  %28 = load ptr, ptr %6, align 8, !tbaa !78
  %29 = getelementptr inbounds nuw i8, ptr %6, i64 16
  %30 = icmp eq ptr %28, %29
  br i1 %30, label %_ZNKSt7__cxx1112basic_stringIcSt11char_traitsIcESaIcEE11_M_is_localEv.exit.thread.i.i12, label %_ZNKSt7__cxx1112basic_stringIcSt11char_traitsIcESaIcEE11_M_is_localEv.exit.i.i11

_ZNKSt7__cxx1112basic_stringIcSt11char_traitsIcESaIcEE11_M_is_localEv.exit.thread.i.i12: ; preds = %.critedge
  %31 = getelementptr inbounds nuw i8, ptr %6, i64 8
  %32 = load i64, ptr %31, align 8, !tbaa !97
  %33 = icmp ult i64 %32, 16
  call void @llvm.assume(i1 %33)
  br label %_ZNSt7__cxx1112basic_stringIcSt11char_traitsIcESaIcEED2Ev.exit13

_ZNKSt7__cxx1112basic_stringIcSt11char_traitsIcESaIcEE11_M_is_localEv.exit.i.i11: ; preds = %.critedge
  %34 = load i64, ptr %29, align 8, !tbaa !101
  %35 = add i64 %34, 1
  call void @_ZdlPvm(ptr noundef %28, i64 noundef %35) #28
  br label %_ZNSt7__cxx1112basic_stringIcSt11char_traitsIcESaIcEED2Ev.exit13

_ZNSt7__cxx1112basic_stringIcSt11char_traitsIcESaIcEED2Ev.exit13: ; preds = %_ZNKSt7__cxx1112basic_stringIcSt11char_traitsIcESaIcEE11_M_is_localEv.exit.thread.i.i12, %_ZNKSt7__cxx1112basic_stringIcSt11char_traitsIcESaIcEE11_M_is_localEv.exit.i.i11
  call void @llvm.lifetime.end.p0(i64 32, ptr nonnull %6) #27
  ret i1 true
}